#include <math.h>
#include <stdio.h>
#include <stdlib.h>
#include <string.h>

int main()
{
    int i,j,k,n,a[1000];
	
	scanf("%d%d",&n,&k);
	for (i=0;i<n;i++)
	{
		scanf("%d",&a[i]);
	}

	int flag;
	for (i=0;i<n;i++)
	{
		flag=0;
		for (j=0;j<n;j++)
		{
			if (k==a[i]+a[j])
			{
				flag=1;break;
		}}
		
		if (flag)
		{
			break;
		}
	}
	if (flag)
	{
		printf("yes");
		
	}
	else
		printf("no");
	return 0;
	
}
